target datalayout = "e-m:e-p270:32:32-p271:32:32-p272:64:64-i64:64-i128:128-f80:128-n8:16:32:64-S128"
target triple = "x86_64-pc-linux-gnu"

%"class.glslang::TPpToken" = type <{ %"struct.glslang::TSourceLoc", i8, i8, [6 x i8], %union.anon.0, [1025 x i8], [7 x i8] }>
%"struct.glslang::TSourceLoc" = type { ptr, i32, i32, i32 }
%union.anon.0 = type { double }
%"class.glslang::TPpContext::tInput" = type { ptr, i8, ptr }
%"class.glslang::TPpContext::tUngotTokenInput" = type { %"class.glslang::TPpContext::tInput", i32, [4 x i8], %"class.glslang::TPpToken" }

; Function Attrs: mustprogress nounwind uwtable
define noundef i32 @_ZN7glslang10TPpContext16tUngotTokenInput4scanEPNS_8TPpTokenE(ptr noundef nonnull align 8 dereferenceable(1104) %0, ptr noundef %1) unnamed_addr #0 align 2 {
  %3 = alloca i32, align 4
  %4 = alloca ptr, align 8
  %5 = alloca ptr, align 8
  %6 = alloca i32, align 4
  store ptr %0, ptr %4, align 8
  store ptr %1, ptr %5, align 8
  %7 = load ptr, ptr %4, align 8
  %8 = getelementptr inbounds %"class.glslang::TPpContext::tInput", ptr %7, i32 0, i32 1
  %9 = load i8, ptr %8, align 8
  %10 = trunc i8 %9 to i1
  br i1 %10, label %11, label %12

11:                                               ; preds = %2
  store i32 -1, ptr %3, align 4
  br label %19

12:                                               ; preds = %2
  %13 = getelementptr inbounds %"class.glslang::TPpContext::tUngotTokenInput", ptr %7, i32 0, i32 1
  %14 = load i32, ptr %13, align 8
  store i32 %14, ptr %6, align 4
  %15 = getelementptr inbounds %"class.glslang::TPpContext::tUngotTokenInput", ptr %7, i32 0, i32 3
  %16 = load ptr, ptr %5, align 8
  call void @llvm.memcpy.p0.p0.i64(ptr align 8 %16, ptr align 8 %15, i64 1065, i1 false)
  %17 = getelementptr inbounds %"class.glslang::TPpContext::tInput", ptr %7, i32 0, i32 1
  store i8 1, ptr %17, align 8
  %18 = load i32, ptr %6, align 4
  store i32 %18, ptr %3, align 4
  br label %19

19:                                               ; preds = %12, %11
  %20 = load i32, ptr %3, align 4
  ret i32 %20
}