; Function Attrs: mustprogress nofree norecurse nosync nounwind willreturn memory(argmem: readwrite) uwtable
define noundef i32 @_ZN7glslang10TPpContext16tUngotTokenInput4scanEPNS_8TPpTokenE(ptr noundef nonnull align 8 captures(none) dereferenceable(1104) %0, ptr noundef writeonly captures(none) %1) unnamed_addr #5 align 2 {
  %3 = getelementptr inbounds nuw i8, ptr %0, i64 8
  %4 = load i8, ptr %3, align 8
  %5 = trunc i8 %4 to i1
  br i1 %5, label %10, label %6

6:                                                ; preds = %2
  %7 = getelementptr inbounds nuw i8, ptr %0, i64 24
  %8 = load i32, ptr %7, align 8
  %9 = getelementptr inbounds nuw i8, ptr %0, i64 32
  tail call void @llvm.memcpy.p0.p0.i64(ptr noundef nonnull align 8 dereferenceable(1065) %1, ptr noundef nonnull align 8 dereferenceable(1065) %9, i64 1065, i1 false)
  store i8 1, ptr %3, align 8
  br label %10

10:                                               ; preds = %2, %6
  %.0 = phi i32 [ %8, %6 ], [ -1, %2 ]
  ret i32 %.0
}